; Function Attrs: mustprogress uwtable
define dso_local void @_ZN12b3DynamicBvh5clearEv(ptr noundef nonnull align 8 dereferenceable(96) %0) local_unnamed_addr #2 align 2 {
  %2 = load ptr, ptr %0, align 8, !tbaa !28
  %.not = icmp eq ptr %2, null
  br i1 %.not, label %4, label %3

3:                                                ; preds = %1
  tail call fastcc void @_ZL19b3RecurseDeleteNodeP12b3DynamicBvhP10b3DbvtNode(ptr noundef %0, ptr noundef nonnull %2)
  br label %4

4:                                                ; preds = %3, %1
  %5 = getelementptr inbounds nuw i8, ptr %0, i64 8
  %6 = load ptr, ptr %5, align 8, !tbaa !29
  tail call void @_Z21b3AlignedFreeInternalPv(ptr noundef %6)
  store ptr null, ptr %5, align 8, !tbaa !29
  %7 = getelementptr inbounds nuw i8, ptr %0, i64 16
  store i32 -1, ptr %7, align 8, !tbaa !23
  %8 = getelementptr inbounds nuw i8, ptr %0, i64 48
  %9 = load ptr, ptr %8, align 8, !tbaa !13
  %.not.i.i = icmp eq ptr %9, null
  br i1 %.not.i.i, label %_ZN20b3AlignedObjectArrayIN12b3DynamicBvh6sStkNNEE5clearEv.exit, label %10

10:                                               ; preds = %4
  %11 = getelementptr inbounds nuw i8, ptr %0, i64 56
  %12 = load i8, ptr %11, align 8, !tbaa !4, !range !30, !noundef !31
  %13 = trunc nuw i8 %12 to i1
  br i1 %13, label %14, label %_ZN20b3AlignedObjectArrayIN12b3DynamicBvh6sStkNNEE5clearEv.exit

14:                                               ; preds = %10
  tail call void @_Z21b3AlignedFreeInternalPv(ptr noundef nonnull %9)
  br label %_ZN20b3AlignedObjectArrayIN12b3DynamicBvh6sStkNNEE5clearEv.exit

_ZN20b3AlignedObjectArrayIN12b3DynamicBvh6sStkNNEE5clearEv.exit: ; preds = %4, %10, %14
  %15 = getelementptr inbounds nuw i8, ptr %0, i64 36
  %16 = getelementptr inbounds nuw i8, ptr %0, i64 56
  store i8 1, ptr %16, align 8, !tbaa !4
  store ptr null, ptr %8, align 8, !tbaa !13
  store i32 0, ptr %15, align 4, !tbaa !14
  %17 = getelementptr inbounds nuw i8, ptr %0, i64 40
  store i32 0, ptr %17, align 8, !tbaa !15
  %18 = getelementptr inbounds nuw i8, ptr %0, i64 24
  store i32 0, ptr %18, align 8, !tbaa !27
  ret void
}